(dp0
S'k_p_on_zap_species'
p1
cnumpy.core.multiarray
scalar
p2
(cnumpy
dtype
p3
(S'f8'
p4
I0
I1
tp5
Rp6
(I3
S'<'
p7
NNNI-1
I-1
I0
tp8
bS'\x00\x00\x00\x00\x00\x00\x12@'
p9
tp10
Rp11
sS'k_lck_on_RL'
p12
g2
(g6
S'a2U0*\xa9#?'
p13
tp14
Rp15
sS'kp_on_lat1'
p16
g11
sS'kp_on_lat2'
p17
g2
(g6
S'\xcd\xcc\xcc\xcc\xcc\xcc\xec?'
p18
tp19
Rp20
sS'k_zap_on_R_pmhc'
p21
g2
(g6
S'i\x1dUM\x10u\xcf>'
p22
tp23
Rp24
sS'k_lat_on_species'
p25
g2
(g6
S'i\x1dUM\x10u\xff>'
p26
tp27
Rp28
sS'k_p_on_R_pmhc'
p29
g11
s.