(dp0
S'k_p_lat_on_species'
p1
F0.5
sS'k_p_on_zap_species'
p2
F5.0
sS'k_lck_on_RL'
p3
F0.00016666666666666666
sS'k_neg_fb'
p4
F0.1
sS'kp_on_lat1'
p5
F5.0
sS'k_zap_on_R_pmhc'
p6
F4.166666666666667e-06
sS'k_lcki'
p7
F0.01
sS'k_lat_on_species'
p8
F3.3333333333333335e-05
sS'k_p_on_R_pmhc'
p9
F5.0
s.