(dp0
S'k_p_lat_on_species'
p1
F0.2
sS'k_p_on_zap_species'
p2
F2.0
sS'k_lck_on_RL'
p3
F6.666666666666667e-05
sS'k_neg_fb'
p4
F0.01
sS'kp_on_lat1'
p5
F2.0
sS'k_zap_on_R_pmhc'
p6
F1.6666666666666667e-06
sS'k_lcki'
p7
F0.01
sS'k_lat_on_species'
p8
F1.3333333333333333e-05
sS'k_p_on_R_pmhc'
p9
F2.0
s.