(dp0
S'k_p_lat_on_species'
p1
F0.3
sS'k_p_on_zap_species'
p2
F3.0
sS'k_lck_on_RL'
p3
F0.0001
sS'k_neg_fb'
p4
F0.001
sS'kp_on_lat1'
p5
F3.0
sS'k_zap_on_R_pmhc'
p6
F0.0001
sS'k_lcki'
p7
F0.01
sS'k_lat_on_species'
p8
F2e-05
sS'k_p_on_R_pmhc'
p9
F3.0
s.